target datalayout = "e-m:e-p270:32:32-p271:32:32-p272:64:64-i64:64-i128:128-f80:128-n8:16:32:64-S128"
target triple = "x86_64-pc-linux-gnu"

%"struct.folly::ExecutorBlockingList" = type { ptr, %"struct.folly::ExecutorBlockingContext" }
%"struct.folly::ExecutorBlockingContext" = type { i8, i8, ptr, %"class.folly::Range" }
%"class.folly::Range" = type { ptr, ptr }
%"struct.folly::None" = type { i8 }
%"struct.folly::unsafe_default_initialized_cv" = type { i8 }
%"class.folly::Optional" = type { %"struct.folly::Optional<folly::ExecutorBlockingContext>::StorageTriviallyDestructible" }
%"struct.folly::Optional<folly::ExecutorBlockingContext>::StorageTriviallyDestructible" = type <{ %union.anon.1, i8, [7 x i8] }>
%union.anon.1 = type { %"struct.folly::ExecutorBlockingContext" }

@_ZN5folly22executor_blocking_listE = thread_local global ptr @_ZN5follyL9emptyListE, align 8
@_ZN5follyL4noneE = internal constant %"struct.folly::None" undef, align 1
@_ZN5folly26unsafe_default_initializedE = linkonce_odr constant %"struct.folly::unsafe_default_initialized_cv" undef, comdat, align 1

; Function Attrs: mustprogress nounwind uwtable
define linkonce_odr void @_ZN5folly8OptionalINS_23ExecutorBlockingContextEE9constructIJRS1_EEEvDpOT_(ptr noundef nonnull align 8 dereferenceable(40) %0, ptr noundef nonnull align 8 dereferenceable(32) %1) #0 comdat align 2 {
  %3 = alloca ptr, align 8
  %4 = alloca ptr, align 8
  %5 = alloca ptr, align 8
  store ptr %0, ptr %3, align 8, !tbaa !61
  store ptr %1, ptr %4, align 8, !tbaa !65
  %6 = load ptr, ptr %3, align 8
  call void @llvm.lifetime.start.p0(i64 8, ptr %5) #19
  %7 = getelementptr inbounds nuw %"class.folly::Optional", ptr %6, i32 0, i32 0
  %8 = getelementptr inbounds nuw %"struct.folly::Optional<folly::ExecutorBlockingContext>::StorageTriviallyDestructible", ptr %7, i32 0, i32 0
  store ptr %8, ptr %5, align 8, !tbaa !73
  %9 = load ptr, ptr %5, align 8, !tbaa !73
  %10 = load ptr, ptr %4, align 8, !tbaa !65
  call void @llvm.memcpy.p0.p0.i64(ptr align 8 %9, ptr align 8 %10, i64 32, i1 false), !tbaa.struct !74
  %11 = getelementptr inbounds nuw %"class.folly::Optional", ptr %6, i32 0, i32 0
  %12 = getelementptr inbounds nuw %"struct.folly::Optional<folly::ExecutorBlockingContext>::StorageTriviallyDestructible", ptr %11, i32 0, i32 1
  store i8 1, ptr %12, align 8, !tbaa !76
  call void @llvm.lifetime.end.p0(i64 8, ptr %5) #19
  ret void
}

; Function Attrs: alwaysinline mustprogress nounwind uwtable
define linkonce_odr hidden noundef signext i8 @_ZNK5folly29unsafe_default_initialized_cvcvT_IcEEv(ptr noundef nonnull align 1 dereferenceable(1) %0) #9 comdat align 2 {
  %2 = alloca ptr, align 8
  store ptr %0, ptr %2, align 8, !tbaa !71
  ret i8 0
}

; Function Attrs: mustprogress nounwind uwtable
define linkonce_odr void @_ZN5folly8OptionalINS_23ExecutorBlockingContextEEC2IJRS1_EEENS2_18PrivateConstructorEDpOT_(ptr noundef nonnull align 8 dereferenceable(40) %0, ptr noundef nonnull align 8 dereferenceable(32) %1) unnamed_addr #0 comdat align 2 personality ptr @__gxx_personality_v0 {
  %3 = alloca ptr, align 8
  %4 = alloca ptr, align 8
  store ptr %0, ptr %3, align 8, !tbaa !61
  store ptr %1, ptr %4, align 8, !tbaa !65
  %5 = load ptr, ptr %3, align 8
  %6 = getelementptr inbounds nuw %"class.folly::Optional", ptr %5, i32 0, i32 0
  invoke void @_ZN5folly8OptionalINS_23ExecutorBlockingContextEE28StorageTriviallyDestructibleC2Ev(ptr noundef nonnull align 8 dereferenceable(33) %6)
          to label %7 unwind label %10

7:                                                ; preds = %2
  %8 = load ptr, ptr %4, align 8, !tbaa !65
  invoke void @_ZN5folly8OptionalINS_23ExecutorBlockingContextEE9constructIJRS1_EEEvDpOT_(ptr noundef nonnull align 8 dereferenceable(40) %5, ptr noundef nonnull align 8 dereferenceable(32) %8)
          to label %9 unwind label %10

9:                                                ; preds = %7
  ret void

10:                                               ; preds = %7, %2
  %11 = landingpad { ptr, i32 }
          catch ptr null
  %12 = extractvalue { ptr, i32 } %11, 0
  call void @__clang_call_terminate(ptr %12) #18
  unreachable
}

; Function Attrs: mustprogress nounwind uwtable
define linkonce_odr void @_ZN5folly8OptionalINS_23ExecutorBlockingContextEE28StorageTriviallyDestructibleC2Ev(ptr noundef nonnull align 8 dereferenceable(33) %0) unnamed_addr #0 comdat align 2 {
  %2 = alloca ptr, align 8
  store ptr %0, ptr %2, align 8, !tbaa !67
  %3 = load ptr, ptr %2, align 8
  %4 = getelementptr inbounds nuw %"struct.folly::Optional<folly::ExecutorBlockingContext>::StorageTriviallyDestructible", ptr %3, i32 0, i32 0
  %5 = call noundef signext i8 @_ZNK5folly29unsafe_default_initialized_cvcvT_IcEEv(ptr noundef nonnull align 1 dereferenceable(1) @_ZN5folly26unsafe_default_initializedE) #19
  store i8 %5, ptr %4, align 8, !tbaa !14
  %6 = getelementptr inbounds nuw %"struct.folly::Optional<folly::ExecutorBlockingContext>::StorageTriviallyDestructible", ptr %3, i32 0, i32 1
  store i8 0, ptr %6, align 8, !tbaa !69
  ret void
}

; Function Attrs: noinline noreturn nounwind uwtable
define linkonce_odr hidden void @__clang_call_terminate(ptr noundef %0) #6 comdat {
  %2 = call ptr @__cxa_begin_catch(ptr %0) #19
  call void @_ZSt9terminatev() #18
  unreachable
}

; Function Attrs: mustprogress nounwind uwtable
define linkonce_odr void @_ZN5folly13make_optionalIRNS_23ExecutorBlockingContextEEENS_8OptionalINSt5decayIT_E4typeEEEOS5_(ptr dead_on_unwind noalias writable sret(%"class.folly::Optional") align 8 %0, ptr noundef nonnull align 8 dereferenceable(32) %1) #0 comdat {
  %3 = alloca ptr, align 8
  %4 = alloca ptr, align 8
  store ptr %0, ptr %3, align 8
  store ptr %1, ptr %4, align 8, !tbaa !65
  %5 = load ptr, ptr %4, align 8, !tbaa !65
  call void @_ZN5folly8OptionalINS_23ExecutorBlockingContextEEC2IJRS1_EEENS2_18PrivateConstructorEDpOT_(ptr noundef nonnull align 8 dereferenceable(40) %0, ptr noundef nonnull align 8 dereferenceable(32) %5) #19
  ret void
}

; Function Attrs: mustprogress nounwind uwtable
define linkonce_odr void @_ZN5folly8OptionalINS_23ExecutorBlockingContextEEC2ERKNS_4NoneE(ptr noundef nonnull align 8 dereferenceable(40) %0, ptr noundef nonnull align 1 dereferenceable(1) %1) unnamed_addr #0 comdat align 2 personality ptr @__gxx_personality_v0 {
  %3 = alloca ptr, align 8
  %4 = alloca ptr, align 8
  store ptr %0, ptr %3, align 8, !tbaa !61
  store ptr %1, ptr %4, align 8, !tbaa !63
  %5 = load ptr, ptr %3, align 8
  %6 = getelementptr inbounds nuw %"class.folly::Optional", ptr %5, i32 0, i32 0
  invoke void @_ZN5folly8OptionalINS_23ExecutorBlockingContextEE28StorageTriviallyDestructibleC2Ev(ptr noundef nonnull align 8 dereferenceable(33) %6)
          to label %7 unwind label %8

7:                                                ; preds = %2
  ret void

8:                                                ; preds = %2
  %9 = landingpad { ptr, i32 }
          catch ptr null
  %10 = extractvalue { ptr, i32 } %9, 0
  call void @__clang_call_terminate(ptr %10) #18
  unreachable
}

; Function Attrs: mustprogress nounwind uwtable
define void @_ZN5folly26getExecutorBlockingContextEv(ptr dead_on_unwind noalias writable sret(%"class.folly::Optional") align 8 %0) #0 personality ptr @__gxx_personality_v0 {
  %2 = alloca ptr, align 8
  store ptr %0, ptr %2, align 8
  %3 = call align 8 ptr @llvm.threadlocal.address.p0(ptr align 8 @_ZN5folly22executor_blocking_listE)
  %4 = load ptr, ptr %3, align 8, !tbaa !52
  %5 = getelementptr inbounds nuw %"struct.folly::ExecutorBlockingList", ptr %4, i32 0, i32 1
  %6 = getelementptr inbounds nuw %"struct.folly::ExecutorBlockingContext", ptr %5, i32 0, i32 0
  %7 = load i8, ptr %6, align 8, !tbaa !54, !range !59, !noundef !60
  %8 = trunc i8 %7 to i1
  br i1 %8, label %10, label %9

9:                                                ; preds = %1
  call void @_ZN5folly8OptionalINS_23ExecutorBlockingContextEEC2ERKNS_4NoneE(ptr noundef nonnull align 8 dereferenceable(40) %0, ptr noundef nonnull align 1 dereferenceable(1) @_ZN5follyL4noneE) #19
  br label %15

10:                                               ; preds = %1
  %11 = call align 8 ptr @llvm.threadlocal.address.p0(ptr align 8 @_ZN5folly22executor_blocking_listE)
  %12 = load ptr, ptr %11, align 8, !tbaa !52
  %13 = getelementptr inbounds nuw %"struct.folly::ExecutorBlockingList", ptr %12, i32 0, i32 1
  invoke void @_ZN5folly13make_optionalIRNS_23ExecutorBlockingContextEEENS_8OptionalINSt5decayIT_E4typeEEEOS5_(ptr dead_on_unwind writable sret(%"class.folly::Optional") align 8 %0, ptr noundef nonnull align 8 dereferenceable(32) %13)
          to label %14 unwind label %16

14:                                               ; preds = %10
  br label %15

15:                                               ; preds = %14, %9
  ret void

16:                                               ; preds = %10
  %17 = landingpad { ptr, i32 }
          catch ptr null
  %18 = extractvalue { ptr, i32 } %17, 0
  call void @__clang_call_terminate(ptr %18) #18
  unreachable
}