; Function Attrs: mustprogress nofree norecurse nosync nounwind willreturn memory(readwrite, inaccessiblemem: none) uwtable
define void @_ZN5folly26getExecutorBlockingContextEv(ptr dead_on_unwind noalias writable writeonly sret(%"class.folly::Optional") align 8 captures(none) initializes((0, 1), (32, 33)) %0) local_unnamed_addr #15 personality ptr @__gxx_personality_v0 {
  %2 = tail call align 8 ptr @llvm.threadlocal.address.p0(ptr align 8 @_ZN5folly22executor_blocking_listE)
  %3 = load ptr, ptr %2, align 8, !tbaa !26
  %4 = getelementptr inbounds nuw i8, ptr %3, i64 8
  %5 = load i8, ptr %4, align 8, !tbaa !28, !range !35, !noundef !36
  %6 = trunc nuw i8 %5 to i1
  br i1 %6, label %8, label %7

7:                                                ; preds = %1
  store i8 0, ptr %0, align 8, !tbaa !23
  br label %9

8:                                                ; preds = %1
  tail call void @llvm.memcpy.p0.p0.i64(ptr noundef nonnull align 8 dereferenceable(40) %0, ptr noundef nonnull align 8 dereferenceable(32) %4, i64 32, i1 false), !tbaa.struct !37
  br label %9

9:                                                ; preds = %8, %7
  %.sink = phi i8 [ 1, %8 ], [ 0, %7 ]
  %10 = getelementptr inbounds nuw i8, ptr %0, i64 32
  store i8 %.sink, ptr %10, align 8, !tbaa !41
  ret void
}